
ST7565r-Optymalizacja.elf:     file format elf32-avr

Sections:
Idx Name          Size      VMA       LMA       File off  Algn
  0 .data         00000000  00800100  0000154e  000015e2  2**0
                  CONTENTS, ALLOC, LOAD, DATA
  1 .text         0000154e  00000000  00000000  00000094  2**1
                  CONTENTS, ALLOC, LOAD, READONLY, CODE
  2 .bss          00000206  00800100  00800100  000015e2  2**0
                  ALLOC
  3 .comment      00000030  00000000  00000000  000015e2  2**0
                  CONTENTS, READONLY
  4 .debug_aranges 00000140  00000000  00000000  00001612  2**0
                  CONTENTS, READONLY, DEBUGGING
  5 .debug_info   00002c8f  00000000  00000000  00001752  2**0
                  CONTENTS, READONLY, DEBUGGING
  6 .debug_abbrev 00000624  00000000  00000000  000043e1  2**0
                  CONTENTS, READONLY, DEBUGGING
  7 .debug_line   0000074a  00000000  00000000  00004a05  2**0
                  CONTENTS, READONLY, DEBUGGING
  8 .debug_frame  000002f0  00000000  00000000  00005150  2**2
                  CONTENTS, READONLY, DEBUGGING
  9 .debug_str    0000206b  00000000  00000000  00005440  2**0
                  CONTENTS, READONLY, DEBUGGING
 10 .debug_loc    00000e60  00000000  00000000  000074ab  2**0
                  CONTENTS, READONLY, DEBUGGING
 11 .debug_ranges 00000170  00000000  00000000  0000830b  2**0
                  CONTENTS, READONLY, DEBUGGING

Disassembly of section .text:

00000000 <__vectors>:
       0:	0c 94 0b 09 	jmp	0x1216	; 0x1216 <__ctors_end>
       4:	0c 94 1d 09 	jmp	0x123a	; 0x123a <__bad_interrupt>
       8:	0c 94 1d 09 	jmp	0x123a	; 0x123a <__bad_interrupt>
       c:	0c 94 1d 09 	jmp	0x123a	; 0x123a <__bad_interrupt>
      10:	0c 94 1d 09 	jmp	0x123a	; 0x123a <__bad_interrupt>
      14:	0c 94 1d 09 	jmp	0x123a	; 0x123a <__bad_interrupt>
      18:	0c 94 1d 09 	jmp	0x123a	; 0x123a <__bad_interrupt>
      1c:	0c 94 1d 09 	jmp	0x123a	; 0x123a <__bad_interrupt>
      20:	0c 94 1d 09 	jmp	0x123a	; 0x123a <__bad_interrupt>
      24:	0c 94 1d 09 	jmp	0x123a	; 0x123a <__bad_interrupt>
      28:	0c 94 1d 09 	jmp	0x123a	; 0x123a <__bad_interrupt>
      2c:	0c 94 1d 09 	jmp	0x123a	; 0x123a <__bad_interrupt>
      30:	0c 94 1d 09 	jmp	0x123a	; 0x123a <__bad_interrupt>
      34:	0c 94 1d 09 	jmp	0x123a	; 0x123a <__bad_interrupt>
      38:	0c 94 1d 09 	jmp	0x123a	; 0x123a <__bad_interrupt>
      3c:	0c 94 1d 09 	jmp	0x123a	; 0x123a <__bad_interrupt>
      40:	0c 94 1d 09 	jmp	0x123a	; 0x123a <__bad_interrupt>
      44:	0c 94 1d 09 	jmp	0x123a	; 0x123a <__bad_interrupt>
      48:	0c 94 1d 09 	jmp	0x123a	; 0x123a <__bad_interrupt>
      4c:	0c 94 1d 09 	jmp	0x123a	; 0x123a <__bad_interrupt>
      50:	0c 94 1d 09 	jmp	0x123a	; 0x123a <__bad_interrupt>
      54:	0c 94 1d 09 	jmp	0x123a	; 0x123a <__bad_interrupt>
      58:	0c 94 1d 09 	jmp	0x123a	; 0x123a <__bad_interrupt>
      5c:	0c 94 1d 09 	jmp	0x123a	; 0x123a <__bad_interrupt>
      60:	0c 94 1d 09 	jmp	0x123a	; 0x123a <__bad_interrupt>
      64:	0c 94 1d 09 	jmp	0x123a	; 0x123a <__bad_interrupt>

00000068 <__trampolines_end>:
      68:	48 65       	ori	r20, 0x58	; 88
      6a:	6c 6c       	ori	r22, 0xCC	; 204
      6c:	6f 20       	and	r6, r15
      6e:	57 6f       	ori	r21, 0xF7	; 247
      70:	72 6c       	ori	r23, 0xC2	; 194
      72:	64 20       	and	r6, r4
      74:	21 21       	and	r18, r1
      76:	21 00       	.word	0x0021	; ????

00000078 <__c.1668>:
      78:	48 65 6c 6c 6f 20 57 6f 72 6c 64 20 21 21 21 00     Hello World !!!.

00000088 <__c.1666>:
      88:	48 65 6c 6c 6f 20 57 6f 72 6c 64 20 21 21 21 00     Hello World !!!.

00000098 <system16_array>:
      98:	10 00 5f 00 88 0a 6f 0a 56 0a 3d 0a 24 0a 0b 0a     .._...o.V.=.$...
      a8:	f2 09 d9 09 c0 09 a7 09 8e 09 75 09 5c 09 43 09     ..........u.\.C.
      b8:	2a 09 11 09 f8 08 df 08 c6 08 ad 08 94 08 7b 08     *.............{.
      c8:	62 08 49 08 30 08 17 08 fe 07 e5 07 cc 07 b3 07     b.I.0...........
      d8:	9a 07 81 07 68 07 4f 07 36 07 1d 07 04 07 eb 06     ....h.O.6.......
      e8:	d2 06 b9 06 a0 06 87 06 6e 06 55 06 3c 06 23 06     ........n.U.<.#.
      f8:	0a 06 f1 05 d8 05 bf 05 a6 05 8d 05 74 05 5b 05     ............t.[.
     108:	42 05 29 05 10 05 f7 04 de 04 c5 04 ac 04 93 04     B.).............
     118:	7a 04 61 04 48 04 2f 04 16 04 fd 03 e4 03 cb 03     z.a.H./.........
     128:	b2 03 99 03 80 03 67 03 4e 03 35 03 1c 03 03 03     ......g.N.5.....
     138:	ea 02 d1 02 b8 02 9f 02 86 02 6d 02 54 02 3b 02     ..........m.T.;.
     148:	22 02 09 02 f0 01 d7 01 be 01 a5 01 8c 01 73 01     ".............s.
     158:	5a 01                                               Z.

0000015a <image_data_system16_0x7e>:
     15a:	0c 00 00 00 10 00 18 00 0c 00 04 00 0c 00 18 00     ................
     16a:	10 00 18 00 0c 00 04 00 00                          .........

00000173 <image_data_system16_0x7d>:
     173:	0c 00 00 00 00 60 03 60 03 60 03 70 07 3f 7e 1f     .....`.`.`.p.?~.
     183:	fc 01 c0 00 80 00 00 00 00                          .........

0000018c <image_data_system16_0x7c>:
     18c:	0c 00 00 00 00 00 00 00 00 00 00 3f bf 3f bf 00     ...........?.?..
	...

000001a5 <image_data_system16_0x7b>:
     1a5:	0c 00 00 00 00 00 80 01 c0 1f fc 3f 7e 70 07 60     ...........?~p.`
     1b5:	03 60 03 60 03 00 00 00 00                          .`.`.....

000001be <image_data_system16_0x7a>:
     1be:	0c 00 00 30 60 38 60 3c 60 36 60 33 60 31 e0 30     ...0`8`<`6`3`1.0
     1ce:	e0 30 60 30 20 00 00 00 00                          .0`0 ....

000001d7 <image_data_system16_0x79>:
     1d7:	0c 00 00 00 00 00 60 81 e0 e7 80 7e 00 1e 00 07     ......`....~....
     1e7:	80 01 e0 00 60 00 00 00 00                          ....`....

000001f0 <image_data_system16_0x78>:
     1f0:	0c 00 00 30 60 38 e0 1d c0 0f 80 07 00 0f 80 1d     ...0`8..........
     200:	c0 38 e0 30 60 00 00 00 00                          .8.0`....

00000209 <image_data_system16_0x77>:
     209:	0c 00 00 07 e0 1f e0 38 00 1c 00 0f e0 0f e0 1c     .......8........
     219:	00 38 00 1f e0 07 e0 00 00                          .8.......

00000222 <image_data_system16_0x76>:
     222:	0c 00 00 00 60 01 e0 07 80 1e 00 38 00 38 00 1e     ....`......8.8..
     232:	00 07 80 01 e0 00 60 00 00                          ......`..

0000023b <image_data_system16_0x75>:
     23b:	0c 00 00 0f e0 1f e0 38 00 30 00 30 00 30 00 30     .......8.0.0.0.0
     24b:	00 18 00 3f e0 3f e0 00 00                          ...?.?...

00000254 <image_data_system16_0x74>:
     254:	0c 00 00 00 60 00 60 1f fe 3f fe 30 60 30 60 30     ....`.`..?.0`0`0
     264:	60 30 00 00 00 00 00 00 00                          `0.......

0000026d <image_data_system16_0x73>:
     26d:	0c 00 00 11 c0 33 e0 33 60 33 60 33 60 33 60 3f     .....3.3`3`3`3`?
     27d:	60 1e 40 00 00 00 00 00 00                          `.@......

00000286 <image_data_system16_0x72>:
     286:	0c 00 00 00 00 3f e0 3f e0 00 c0 00 60 00 60 00     .....?.?....`.`.
     296:	60 00 60 00 e0 00 c0 00 00                          `.`......

0000029f <image_data_system16_0x71>:
     29f:	0c 00 00 07 80 0f c0 1c e0 18 60 18 60 18 60 18     ..........`.`.`.
     2af:	60 0c 60 ff e0 ff e0 00 00                          `.`......

000002b8 <image_data_system16_0x70>:
     2b8:	0c 00 00 ff e0 ff e0 0c 60 18 60 18 60 18 60 18     ........`.`.`.`.
     2c8:	60 1c e0 0f c0 07 80 00 00                          `........

000002d1 <image_data_system16_0x6f>:
     2d1:	0c 00 00 0f 80 1f c0 38 e0 30 60 30 60 30 60 30     .......8.0`0`0`0
     2e1:	60 38 e0 1f c0 0f 80 00 00                          `8.......

000002ea <image_data_system16_0x6e>:
     2ea:	0c 00 00 00 00 3f e0 3f e0 00 60 00 60 00 60 00     .....?.?..`.`.`.
     2fa:	60 00 e0 3f c0 3f 80 00 00                          `..?.?...

00000303 <image_data_system16_0x6d>:
     303:	0c 00 00 3f e0 3f c0 00 e0 00 e0 3f c0 3f c0 00     ...?.?.....?.?..
     313:	e0 00 e0 3f c0 3f 80 00 00                          ...?.?...

0000031c <image_data_system16_0x6c>:
     31c:	0c 00 00 00 00 00 00 30 00 30 03 3f ff 3f ff 30     .......0.0.?.?.0
     32c:	00 30 00 00 00 00 00 00 00                          .0.......

00000335 <image_data_system16_0x6b>:
     335:	0c 00 00 00 00 3f ff 3f ff 03 00 07 80 0f c0 1c     .....?.?........
     345:	e0 38 60 30 00 00 00 00 00                          .8`0.....

0000034e <image_data_system16_0x6a>:
     34e:	0c 00 00 00 00 00 00 60 00 e0 00 c0 00 c0 60 ff     .......`......`.
     35e:	ec 7f ec 00 00 00 00 00 00                          .........

00000367 <image_data_system16_0x69>:
     367:	0c 00 00 00 00 00 00 30 00 30 60 3f ec 3f ec 30     .......0.0`?.?.0
     377:	00 30 00 00 00 00 00 00 00                          .0.......

00000380 <image_data_system16_0x68>:
     380:	0c 00 00 3f ff 3f ff 00 c0 00 60 00 60 00 60 00     ...?.?....`.`.`.
     390:	e0 3f c0 3f 80 00 00 00 00                          .?.?.....

00000399 <image_data_system16_0x67>:
     399:	0c 00 00 03 80 c7 c0 ce e0 cc 60 cc 60 cc 60 cc     ..........`.`.`.
     3a9:	60 e6 60 7f e0 3f e0 00 00                          `.`..?...

000003b2 <image_data_system16_0x66>:
     3b2:	0c 00 00 00 c0 00 c0 3f fc 3f fe 00 c7 00 c3 00     .......?.?......
     3c2:	c3 00 03 00 00 00 00 00 00                          .........

000003cb <image_data_system16_0x65>:
     3cb:	0c 00 00 0f 80 1f c0 3b e0 33 60 33 60 33 60 33     .......;.3`3`3`3
     3db:	60 33 60 13 c0 01 80 00 00                          `3`......

000003e4 <image_data_system16_0x64>:
     3e4:	0c 00 00 0f 80 1f c0 38 e0 30 60 30 60 30 60 30     .......8.0`0`0`0
     3f4:	e0 30 c0 3f ff 3f ff 00 00                          .0.?.?...

000003fd <image_data_system16_0x63>:
     3fd:	0c 00 00 0f 80 1f c0 38 e0 30 60 30 60 30 60 30     .......8.0`0`0`0
     40d:	60 30 60 18 c0 08 80 00 00                          `0`......

00000416 <image_data_system16_0x62>:
     416:	0c 00 00 3f ff 3f ff 30 c0 30 60 30 60 30 60 30     ...?.?.0.0`0`0`0
     426:	60 38 e0 1f c0 0f 80 00 00                          `8.......

0000042f <image_data_system16_0x61>:
     42f:	0c 00 00 1c 00 3e 40 33 60 33 60 33 60 33 60 33     .....>@3`3`3`3`3
     43f:	60 33 60 3f e0 3f c0 00 00                          `3`?.?...

00000448 <image_data_system16_0x60>:
     448:	0c 00 00 00 00 00 00 00 00 00 00 00 3e 00 7e 00     ............>.~.
     458:	4e 00 00 00 00 00 00 00 00                          N........

00000461 <image_data_system16_0x5f>:
     461:	0c 00 00 c0 00 c0 00 c0 00 c0 00 c0 00 c0 00 c0     ................
     471:	00 c0 00 c0 00 c0 00 c0 00                          .........

0000047a <image_data_system16_0x5e>:
     47a:	0c 00 00 00 60 00 70 00 38 00 1c 00 0e 00 07 00     ....`.p.8.......
     48a:	0e 00 1c 00 38 00 70 00 60                          ....8.p.`

00000493 <image_data_system16_0x5d>:
     493:	0c 00 00 00 00 00 00 30 03 30 03 30 03 30 03 3f     .......0.0.0.0.?
     4a3:	ff 3f ff 00 00 00 00 00 00                          .?.......

000004ac <image_data_system16_0x5c>:
     4ac:	0c 00 00 00 0e 00 1c 00 38 00 70 00 e0 01 c0 03     ........8.p.....
     4bc:	80 07 00 0e 00 1c 00 18 00                          .........

000004c5 <image_data_system16_0x5b>:
     4c5:	0c 00 00 00 00 00 00 3f ff 3f ff 30 03 30 03 30     .......?.?.0.0.0
     4d5:	03 30 03 00 00 00 00 00 00                          .0.......

000004de <image_data_system16_0x5a>:
     4de:	0c 00 00 30 03 3c 03 3e 03 33 03 31 c3 30 e3 30     ...0.<.>.3.1.0.0
     4ee:	33 30 1f 30 0f 30 03 00 00                          30.0.0...

000004f7 <image_data_system16_0x59>:
     4f7:	0c 00 00 00 03 00 0f 00 3c 00 f0 3f c0 3f c0 00     ........<..?.?..
     507:	f0 00 3c 00 0f 00 03 00 00                          ..<......

00000510 <image_data_system16_0x58>:
     510:	0c 00 00 30 03 3c 0f 0e 1c 03 30 01 e0 01 e0 03     ...0.<....0.....
     520:	30 0e 1c 3c 0f 30 03 00 00                          0..<.0...

00000529 <image_data_system16_0x57>:
     529:	0c 00 00 3f ff 3f ff 1c 00 06 00 03 80 03 80 06     ...?.?..........
     539:	00 1c 00 3f ff 3f ff 00 00                          ...?.?...

00000542 <image_data_system16_0x56>:
     542:	0c 00 00 00 07 00 3f 01 f8 0f c0 3e 00 3e 00 0f     ......?....>.>..
     552:	c0 01 f8 00 3f 00 07 00 00                          ....?....

0000055b <image_data_system16_0x55>:
     55b:	0c 00 00 07 ff 1f ff 38 00 30 00 30 00 30 00 30     .......8.0.0.0.0
     56b:	00 38 00 1f ff 07 ff 00 00                          .8.......

00000574 <image_data_system16_0x54>:
     574:	0c 00 00 00 00 00 03 00 03 00 03 3f ff 3f ff 00     ...........?.?..
     584:	03 00 03 00 03 00 00 00 00                          .........

0000058d <image_data_system16_0x53>:
     58d:	0c 00 00 0c 3c 1c 7e 38 e7 30 c3 30 c3 30 c3 30     ....<.~8.0.0.0.0
     59d:	c3 39 c7 1f 8e 0f 0c 00 00                          .9.......

000005a6 <image_data_system16_0x52>:
     5a6:	0c 00 00 3f ff 3f ff 01 83 01 83 03 83 07 83 0f     ...?.?..........
     5b6:	83 1d c7 38 fe 30 7c 00 00                          ...8.0|..

000005bf <image_data_system16_0x51>:
     5bf:	0c 00 00 03 f0 0f fc 1c 0e 38 07 30 03 36 03 3e     .........8.0.6.>
     5cf:	07 1c 0e 3f fc 33 f0 00 00                          ...?.3...

000005d8 <image_data_system16_0x50>:
     5d8:	0c 00 00 3f ff 3f ff 01 83 01 83 01 83 01 83 01     ...?.?..........
     5e8:	83 01 c7 00 fe 00 7c 00 00                          ......|..

000005f1 <image_data_system16_0x4f>:
     5f1:	0c 00 00 03 f0 0f fc 1c 0e 38 07 30 03 30 03 38     .........8.0.0.8
     601:	07 1c 0e 0f fc 03 f0 00 00                          .........

0000060a <image_data_system16_0x4e>:
     60a:	0c 00 00 3f ff 3f ff 00 0e 00 38 00 f0 03 c0 07     ...?.?....8.....
     61a:	00 1c 00 3f ff 3f ff 00 00                          ...?.?...

00000623 <image_data_system16_0x4d>:
     623:	0c 00 00 3f ff 3f ff 00 1e 00 78 01 e0 01 e0 00     ...?.?....x.....
     633:	78 00 1e 3f ff 3f ff 00 00                          x..?.?...

0000063c <image_data_system16_0x4c>:
     63c:	0c 00 00 3f ff 3f ff 30 00 30 00 30 00 30 00 30     ...?.?.0.0.0.0.0
     64c:	00 30 00 30 00 30 00 00 00                          .0.0.0...

00000655 <image_data_system16_0x4b>:
     655:	0c 00 00 3f ff 3f ff 00 c0 01 e0 03 f0 07 38 0e     ...?.?........8.
     665:	1c 1c 0e 38 07 30 03 00 00                          ...8.0...

0000066e <image_data_system16_0x4a>:
     66e:	0c 00 00 0e 00 1e 00 38 00 30 00 30 00 30 00 30     .......8.0.0.0.0
     67e:	00 38 00 1f ff 07 ff 00 00                          .8.......

00000687 <image_data_system16_0x49>:
     687:	0c 00 00 00 00 00 00 30 03 30 03 3f ff 3f ff 30     .......0.0.?.?.0
     697:	03 30 03 00 00 00 00 00 00                          .0.......

000006a0 <image_data_system16_0x48>:
     6a0:	0c 00 00 3f ff 3f ff 00 c0 00 c0 00 c0 00 c0 00     ...?.?..........
     6b0:	c0 00 c0 3f ff 3f ff 00 00                          ...?.?...

000006b9 <image_data_system16_0x47>:
     6b9:	0c 00 00 03 f0 0f fc 1c 0e 38 07 30 03 30 c3 30     .........8.0.0.0
     6c9:	c3 30 c3 3f c7 3f c6 00 00                          .0.?.?...

000006d2 <image_data_system16_0x46>:
     6d2:	0c 00 00 3f ff 3f ff 00 c3 00 c3 00 c3 00 c3 00     ...?.?..........
     6e2:	c3 00 c3 00 03 00 03 00 00                          .........

000006eb <image_data_system16_0x45>:
     6eb:	0c 00 00 3f ff 3f ff 30 c3 30 c3 30 c3 30 c3 30     ...?.?.0.0.0.0.0
     6fb:	c3 30 c3 30 03 30 03 00 00                          .0.0.0...

00000704 <image_data_system16_0x44>:
     704:	0c 00 00 3f ff 3f ff 30 03 30 03 30 03 30 03 38     ...?.?.0.0.0.0.8
     714:	07 1c 0e 0f fc 03 f0 00 00                          .........

0000071d <image_data_system16_0x43>:
     71d:	0c 00 00 03 f0 0f fc 1c 0e 38 07 30 03 30 03 30     .........8.0.0.0
     72d:	03 38 07 1c 0e 0c 0c 00 00                          .8.......

00000736 <image_data_system16_0x42>:
     736:	0c 00 00 3f ff 3f ff 30 c3 30 c3 30 c3 30 c3 30     ...?.?.0.0.0.0.0
     746:	e7 39 fe 1f bc 0f 00 00 00                          .9.......

0000074f <image_data_system16_0x41>:
     74f:	0c 00 00 38 00 3f 00 07 e0 06 fc 06 1f 06 1f 06     ...8.?..........
     75f:	fc 07 e0 3f 00 38 00 00 00                          ...?.8...

00000768 <image_data_system16_0x40>:
     768:	0c 00 00 0f f8 1f fe 18 07 33 f3 37 fb 36 1b 37     .........3.7.6.7
     778:	fb 37 fb 36 07 03 fe 01 f8                          .7.6.....

00000781 <image_data_system16_0x3f>:
     781:	0c 00 00 00 1c 00 1e 00 07 00 03 37 83 37 c3 00     ...........7.7..
     791:	e3 00 77 00 3e 00 1c 00 00                          ..w.>....

0000079a <image_data_system16_0x3e>:
     79a:	0c 00 00 00 00 30 03 38 07 1c 0e 0e 1c 07 38 03     .....0.8......8.
     7aa:	f0 01 e0 00 c0 00 00 00 00                          .........

000007b3 <image_data_system16_0x3d>:
     7b3:	0c 00 00 00 00 06 60 06 60 06 60 06 60 06 60 06     ......`.`.`.`.`.
     7c3:	60 06 60 06 60 06 60 00 00                          `.`.`.`..

000007cc <image_data_system16_0x3c>:
     7cc:	0c 00 00 00 00 00 c0 01 e0 03 f0 07 38 0e 1c 1c     ............8...
     7dc:	0e 38 07 30 03 00 00 00 00                          .8.0.....

000007e5 <image_data_system16_0x3b>:
     7e5:	0c 00 00 00 00 00 00 00 00 9c 70 fc 70 7c 70 00     ..........p.p|p.
	...

000007fe <image_data_system16_0x3a>:
     7fe:	0c 00 00 00 00 00 00 00 00 1c 70 1c 70 1c 70 00     ..........p.p.p.
	...

00000817 <image_data_system16_0x39>:
     817:	0c 00 00 00 3c 00 7e 30 e7 30 c3 30 c3 38 c3 1c     ....<.~0.0.0.8..
     827:	c3 0e c3 07 e7 03 fe 00 fc                          .........

00000830 <image_data_system16_0x38>:
     830:	0c 00 00 0f 00 1f bc 39 fe 30 e7 30 c3 30 c3 30     .......9.0.0.0.0
     840:	c3 30 e7 39 fe 1f bc 0f 00                          .0.9.....

00000849 <image_data_system16_0x37>:
     849:	0c 00 00 00 03 00 03 00 03 30 03 3c 03 0f 03 03     .........0.<....
     859:	c3 00 f3 00 3f 00 0f 00 03                          ....?....

00000862 <image_data_system16_0x36>:
     862:	0c 00 00 0f c0 1f f0 39 f8 30 dc 30 ce 30 c7 30     .......9.0.0.0.0
     872:	c3 30 c3 39 c3 1f 80 0f 00                          .0.9.....

0000087b <image_data_system16_0x35>:
     87b:	0c 00 00 0c 3f 1c 7f 38 63 30 63 30 63 30 63 30     ....?..8c0c0c0c0
     88b:	63 30 63 38 e3 1f c3 0f 83                          c0c8.....

00000894 <image_data_system16_0x34>:
     894:	0c 00 00 03 c0 03 e0 03 70 03 38 03 1c 03 0e 03     ........p.8.....
     8a4:	07 3f ff 3f ff 03 00 03 00                          .?.?.....

000008ad <image_data_system16_0x33>:
     8ad:	0c 00 00 0c 0c 1c 0e 38 07 30 c3 30 c3 30 c3 30     .......8.0.0.0.0
     8bd:	c3 30 c3 39 e7 1f 7e 0e 3c                          .0.9..~.<

000008c6 <image_data_system16_0x32>:
     8c6:	0c 00 00 30 1c 38 1e 3c 07 3e 03 37 03 33 83 31     ...0.8.<.>.7.3.1
     8d6:	c3 30 e3 30 77 30 3e 30 1c                          .0.0w0>0.

000008df <image_data_system16_0x31>:
     8df:	0c 00 00 00 00 00 00 30 0c 30 0c 30 0e 3f ff 3f     .......0.0.0.?.?
     8ef:	ff 30 00 30 00 30 00 00 00                          .0.0.0...

000008f8 <image_data_system16_0x30>:
     8f8:	0c 00 00 07 f8 1f fe 1e 06 33 03 31 83 30 c3 30     .........3.1.0.0
     908:	63 30 33 18 1e 1f fe 07 f8                          c03......

00000911 <image_data_system16_0x2f>:
     911:	0c 00 00 18 00 1c 00 0e 00 07 00 03 80 01 c0 00     ................
     921:	e0 00 70 00 38 00 1c 00 0e                          ..p.8....

0000092a <image_data_system16_0x2e>:
     92a:	0c 00 00 00 00 00 00 00 00 38 00 38 00 38 00 00     .........8.8.8..
	...

00000943 <image_data_system16_0x2d>:
     943:	0c 00 00 00 00 01 80 01 80 01 80 01 80 01 80 01     ................
     953:	80 01 80 01 80 00 00 00 00                          .........

0000095c <image_data_system16_0x2c>:
     95c:	0c 00 00 00 00 00 00 00 00 b8 00 f8 00 78 00 00     .............x..
	...

00000975 <image_data_system16_0x2b>:
     975:	0c 00 00 00 00 01 80 01 80 01 80 0f f0 0f f0 01     ................
     985:	80 01 80 01 80 00 00 00 00                          .........

0000098e <image_data_system16_0x2a>:
     98e:	0c 00 00 00 00 0c 98 0e b8 03 e0 0f f8 0f f8 03     ................
     99e:	e0 0e b8 0c 98 00 00 00 00                          .........

000009a7 <image_data_system16_0x29>:
     9a7:	0c 00 00 00 00 00 00 20 01 20 01 38 07 1f fe 0f     ....... . .8....
     9b7:	fc 03 f0 00 00 00 00 00 00                          .........

000009c0 <image_data_system16_0x28>:
     9c0:	0c 00 00 00 00 00 00 03 f0 0f fc 1f fe 38 07 20     .............8. 
     9d0:	01 20 01 00 00 00 00 00 00                          . .......

000009d9 <image_data_system16_0x27>:
     9d9:	0c 00 00 00 00 00 00 00 00 00 27 00 3f 00 1f 00     ..........'.?...
	...

000009f2 <image_data_system16_0x26>:
     9f2:	0c 00 00 00 00 1f 00 3f b8 31 fc 21 c6 37 e2 1e     .......?.1.!.7..
     a02:	3e 1c 1c 36 00 22 00 00 00                          >..6."...

00000a0b <image_data_system16_0x25>:
     a0b:	0c 00 00 30 00 38 38 1c 38 0e 38 07 00 03 80 01     ...0.88.8.8.....
     a1b:	c0 38 e0 38 70 38 38 00 1c                          .8.8p88..

00000a24 <image_data_system16_0x24>:
     a24:	0c 00 00 00 00 04 78 0c fc 0c cc 3f ff 3f ff 0c     ......x....?.?..
     a34:	cc 0f cc 07 88 00 00 00 00                          .........

00000a3d <image_data_system16_0x23>:
     a3d:	0c 00 00 02 00 1e 10 1f 90 03 f0 02 7e 1e 1e 1f     ............~...
     a4d:	90 03 f0 02 7e 00 1e 00 10                          ....~....

00000a56 <image_data_system16_0x22>:
     a56:	0c 00 00 00 00 00 00 00 3c 00 3c 00 00 00 00 00     ........<.<.....
     a66:	3c 00 3c 00 00 00 00 00 00                          <.<......

00000a6f <image_data_system16_0x21>:
     a6f:	0c 00 00 00 00 00 00 00 00 00 7c 33 ff 33 ff 00     ..........|3.3..
     a7f:	7c 00 00 00 00 00 00 00 00                          |........

00000a88 <image_data_system16_0x20>:
     a88:	0c 00 00 00 00 00 00 00 00 00 00 00 00 00 00 00     ................
	...

00000aa1 <system12_array>:
     aa1:	0c 00 5f 00 b1 0e a8 0e 9f 0e 96 0e 8d 0e 84 0e     .._.............
     ab1:	7b 0e 72 0e 69 0e 60 0e 57 0e 4e 0e 45 0e 3c 0e     {.r.i.`.W.N.E.<.
     ac1:	33 0e 2a 0e 21 0e 18 0e 0f 0e 06 0e fd 0d f4 0d     3.*.!...........
     ad1:	eb 0d e2 0d d9 0d d0 0d c7 0d be 0d b5 0d ac 0d     ................
     ae1:	a3 0d 9a 0d 91 0d 88 0d 7f 0d 76 0d 6d 0d 64 0d     ..........v.m.d.
     af1:	5b 0d 52 0d 49 0d 40 0d 37 0d 2e 0d 25 0d 1c 0d     [.R.I.@.7...%...
     b01:	13 0d 0a 0d 01 0d f8 0c ef 0c e6 0c dd 0c d4 0c     ................
     b11:	cb 0c c2 0c b9 0c b0 0c a7 0c 9e 0c 95 0c 8c 0c     ................
     b21:	83 0c 7a 0c 71 0c 68 0c 5f 0c 56 0c 4d 0c 44 0c     ..z.q.h._.V.M.D.
     b31:	3b 0c 32 0c 29 0c 20 0c 17 0c 0e 0c 05 0c fc 0b     ;.2.). .........
     b41:	f3 0b ea 0b e1 0b d8 0b cf 0b c6 0b bd 0b b4 0b     ................
     b51:	ab 0b a2 0b 99 0b 90 0b 87 0b 7e 0b 75 0b 6c 0b     ..........~.u.l.
     b61:	63 0b                                               c.

00000b63 <image_data_system12_0x7e>:
     b63:	05 00 40 02 00 40 02 00 00                          ..@..@...

00000b6c <image_data_system12_0x7d>:
     b6c:	05 00 02 02 1d c0 20 00 00                          ...... ..

00000b75 <image_data_system12_0x7c>:
     b75:	05 00 00 00 3e f0 00 00 00                          ....>....

00000b7e <image_data_system12_0x7b>:
     b7e:	05 02 01 dc 20 20 00 00 00                          ....  ...

00000b87 <image_data_system12_0x7a>:
     b87:	05 31 02 90 25 02 30 00 00                          .1..%.0..

00000b90 <image_data_system12_0x79>:
     b90:	05 9f 0a 00 a0 07 f0 00 00                          .........

00000b99 <image_data_system12_0x78>:
     b99:	05 33 00 c0 0c 03 30 00 00                          .3....0..

00000ba2 <image_data_system12_0x77>:
     ba2:	05 3f 01 00 10 03 f0 00 00                          .?.......

00000bab <image_data_system12_0x76>:
     bab:	05 03 00 c0 30 00 f0 00 00                          ....0....

00000bb4 <image_data_system12_0x75>:
     bb4:	05 1f 02 00 20 03 f0 00 00                          .... ....

00000bbd <image_data_system12_0x74>:
     bbd:	05 01 03 fc 21 00 00 00 00                          ....!....

00000bc6 <image_data_system12_0x73>:
     bc6:	05 12 02 50 29 01 20 00 00                          ...P). ..

00000bcf <image_data_system12_0x72>:
     bcf:	05 01 03 e0 01 00 30 00 00                          ......0..

00000bd8 <image_data_system12_0x71>:
     bd8:	05 1e 02 10 21 0f f0 00 00                          ....!....

00000be1 <image_data_system12_0x70>:
     be1:	05 ff 02 10 21 01 e0 00 00                          ....!....

00000bea <image_data_system12_0x6f>:
     bea:	05 1e 02 10 21 01 e0 00 00                          ....!....

00000bf3 <image_data_system12_0x6e>:
     bf3:	05 3f 00 20 01 03 e0 00 00                          .?. .....

00000bfc <image_data_system12_0x6d>:
     bfc:	05 3f 00 20 02 03 f0 00 00                          .?. .....

00000c05 <image_data_system12_0x6c>:
     c05:	05 00 02 02 3f e2 00 00 00                          ....?....

00000c0e <image_data_system12_0x6b>:
     c0e:	05 3f e0 c0 12 02 10 00 00                          .?.......

00000c17 <image_data_system12_0x6a>:
     c17:	05 40 08 00 7f 40 00 00 00                          .@...@...

00000c20 <image_data_system12_0x69>:
     c20:	05 00 02 00 3f 42 00 00 00                          ....?B...

00000c29 <image_data_system12_0x68>:
     c29:	05 3f e0 10 01 03 e0 00 00                          .?.......

00000c32 <image_data_system12_0x67>:
     c32:	05 1e 0a 10 a1 07 f0 00 00                          .........

00000c3b <image_data_system12_0x66>:
     c3b:	05 01 03 fc 01 20 00 00 00                          ..... ...

00000c44 <image_data_system12_0x65>:
     c44:	05 1e 02 90 29 02 e0 00 00                          ....)....

00000c4d <image_data_system12_0x64>:
     c4d:	05 1e 02 10 21 03 fe 00 00                          ....!....

00000c56 <image_data_system12_0x63>:
     c56:	05 1e 02 10 21 02 10 00 00                          ....!....

00000c5f <image_data_system12_0x62>:
     c5f:	05 3f e2 10 21 01 e0 00 00                          .?..!....

00000c68 <image_data_system12_0x61>:
     c68:	05 18 02 50 25 03 e0 00 00                          ...P%....

00000c71 <image_data_system12_0x60>:
     c71:	05 00 00 07 00 b0 00 00 00                          .........

00000c7a <image_data_system12_0x5f>:
     c7a:	05 80 08 00 80 08 00 80 00                          .........

00000c83 <image_data_system12_0x5e>:
     c83:	05 00 00 04 00 20 04 00 00                          ..... ...

00000c8c <image_data_system12_0x5d>:
     c8c:	05 00 02 02 3f e0 00 00 00                          ....?....

00000c95 <image_data_system12_0x5c>:
     c95:	05 00 60 18 0e 03 00 00 00                          ..`......

00000c9e <image_data_system12_0x5b>:
     c9e:	05 00 03 fe 20 20 00 00 00                          ....  ...

00000ca7 <image_data_system12_0x5a>:
     ca7:	05 38 22 62 21 a2 06 00 00                          .8"b!....

00000cb0 <image_data_system12_0x59>:
     cb0:	05 00 e0 30 3c 00 30 00 e0                          ...0<.0..

00000cb9 <image_data_system12_0x58>:
     cb9:	05 38 e0 70 07 03 8e 00 00                          .8.p.....

00000cc2 <image_data_system12_0x57>:
     cc2:	05 3f e0 80 08 03 fe 00 00                          .?.......

00000ccb <image_data_system12_0x56>:
     ccb:	05 03 e0 c0 30 00 fe 00 00                          ....0....

00000cd4 <image_data_system12_0x55>:
     cd4:	05 1f e2 00 20 01 fe 00 00                          .... ....

00000cdd <image_data_system12_0x54>:
     cdd:	05 00 20 02 3f e0 02 00 20                          .. .?... 

00000ce6 <image_data_system12_0x53>:
     ce6:	05 19 c2 22 22 21 cc 00 00                          ...""!...

00000cef <image_data_system12_0x52>:
     cef:	05 3f e0 62 0a 23 1c 00 00                          .?.b.#...

00000cf8 <image_data_system12_0x51>:
     cf8:	05 1f c2 02 60 29 fc 00 00                          ....`)...

00000d01 <image_data_system12_0x50>:
     d01:	05 3f e0 22 02 20 1c 00 00                          .?.". ...

00000d0a <image_data_system12_0x4f>:
     d0a:	05 1f c2 02 20 21 fc 00 00                          .... !...

00000d13 <image_data_system12_0x4e>:
     d13:	05 3f e0 18 06 03 fe 00 00                          .?.......

00000d1c <image_data_system12_0x4d>:
     d1c:	05 3f e0 18 01 83 fe 00 00                          .?.......

00000d25 <image_data_system12_0x4c>:
     d25:	05 3f e2 00 20 02 00 00 00                          .?.. ....

00000d2e <image_data_system12_0x4b>:
     d2e:	05 3f e0 20 0d 83 06 00 00                          .?. .....

00000d37 <image_data_system12_0x4a>:
     d37:	05 18 02 02 1f e0 02 00 00                          .........

00000d40 <image_data_system12_0x49>:
     d40:	05 00 02 02 3f e2 02 00 00                          ....?....

00000d49 <image_data_system12_0x48>:
     d49:	05 3f e0 20 02 03 fe 00 00                          .?. .....

00000d52 <image_data_system12_0x47>:
     d52:	05 1f c2 02 24 21 cc 00 00                          ....$!...

00000d5b <image_data_system12_0x46>:
     d5b:	05 3f e0 22 02 20 22 00 00                          .?.". "..

00000d64 <image_data_system12_0x45>:
     d64:	05 3f e2 22 22 22 22 00 00                          .?.""""..

00000d6d <image_data_system12_0x44>:
     d6d:	05 3f e2 02 20 21 fc 00 00                          .?.. !...

00000d76 <image_data_system12_0x43>:
     d76:	05 1f c2 02 20 21 0c 00 00                          .... !...

00000d7f <image_data_system12_0x42>:
     d7f:	05 3f e2 22 22 21 dc 00 00                          .?.""!...

00000d88 <image_data_system12_0x41>:
     d88:	05 3f c0 22 02 23 fc 00 00                          .?.".#...

00000d91 <image_data_system12_0x40>:
     d91:	05 1f c2 02 26 22 7c 00 00                          ....&"|..

00000d9a <image_data_system12_0x3f>:
     d9a:	05 00 c0 02 36 20 1c 00 00                          ....6 ...

00000da3 <image_data_system12_0x3e>:
     da3:	05 20 41 08 09 00 60 00 00                          . A...`..

00000dac <image_data_system12_0x3d>:
     dac:	05 0a 00 a0 0a 00 a0 00 00                          .........

00000db5 <image_data_system12_0x3c>:
     db5:	05 06 00 90 10 82 04 00 00                          .........

00000dbe <image_data_system12_0x3b>:
     dbe:	05 00 0b 30 73 00 00 00 00                          ...0s....

00000dc7 <image_data_system12_0x3a>:
     dc7:	05 00 03 30 33 00 00 00 00                          ...03....

00000dd0 <image_data_system12_0x39>:
     dd0:	05 23 c2 42 14 20 fc 00 00                          .#.B. ...

00000dd9 <image_data_system12_0x38>:
     dd9:	05 1d c2 22 22 21 dc 00 00                          ...""!...

00000de2 <image_data_system12_0x37>:
     de2:	05 00 23 82 06 20 1e 00 00                          ..#.. ...

00000deb <image_data_system12_0x36>:
     deb:	05 1f 82 14 21 21 e2 00 00                          ....!!...

00000df4 <image_data_system12_0x35>:
     df4:	05 13 e2 22 22 21 c2 00 00                          ...""!...

00000dfd <image_data_system12_0x34>:
     dfd:	05 06 00 58 04 43 fe 00 00                          ...X.C...

00000e06 <image_data_system12_0x33>:
     e06:	05 10 42 22 22 21 dc 00 00                          ..B""!...

00000e0f <image_data_system12_0x32>:
     e0f:	05 38 c2 42 22 22 1c 00 00                          .8.B""...

00000e18 <image_data_system12_0x31>:
     e18:	05 20 82 04 3f e2 00 00 00                          . ..?....

00000e21 <image_data_system12_0x30>:
     e21:	05 3f c2 02 20 21 fe 00 00                          .?.. !...

00000e2a <image_data_system12_0x2f>:
     e2a:	05 30 00 e0 01 80 06 00 00                          .0.......

00000e33 <image_data_system12_0x2e>:
     e33:	05 00 03 00 30 00 00 00 00                          ....0....

00000e3c <image_data_system12_0x2d>:
     e3c:	05 02 00 20 02 00 20 00 00                          ... .. ..

00000e45 <image_data_system12_0x2c>:
     e45:	05 00 0b 00 70 00 00 00 00                          ....p....

00000e4e <image_data_system12_0x2b>:
     e4e:	05 02 00 20 0f 80 20 02 00                          ... .. ..

00000e57 <image_data_system12_0x2a>:
     e57:	05 04 80 30 0f c0 30 04 80                          ...0..0..

00000e60 <image_data_system12_0x29>:
     e60:	05 00 02 02 1f c0 00 00 00                          .........

00000e69 <image_data_system12_0x28>:
     e69:	05 00 01 fc 20 20 00 00 00                          ....  ...

00000e72 <image_data_system12_0x27>:
     e72:	05 00 00 00 00 b0 07 00 00                          .........

00000e7b <image_data_system12_0x26>:
     e7b:	05 1d c2 22 25 c1 80 24 00                          ..."%..$.

00000e84 <image_data_system12_0x25>:
     e84:	05 30 60 e6 31 83 06 00 00                          .0`.1....

00000e8d <image_data_system12_0x24>:
     e8d:	05 11 82 26 64 41 88 00 00                          ...&dA...

00000e96 <image_data_system12_0x23>:
     e96:	05 04 81 fe 04 81 fe 04 80                          .........

00000e9f <image_data_system12_0x22>:
     e9f:	05 00 00 0f 00 00 0f 00 00                          .........

00000ea8 <image_data_system12_0x21>:
     ea8:	05 00 00 00 37 e0 00 00 00                          ....7....

00000eb1 <image_data_system12_0x20>:
     eb1:	05 00 00 00 00 00 00 00 00                          .........

00000eba <system8_array>:
     eba:	08 00 5f 00 0e 12 07 12 00 12 f9 11 f2 11 eb 11     .._.............
     eca:	e4 11 dd 11 d6 11 cf 11 c8 11 c1 11 ba 11 b3 11     ................
     eda:	ac 11 a5 11 9e 11 97 11 90 11 89 11 82 11 7b 11     ..............{.
     eea:	74 11 6d 11 66 11 5f 11 58 11 51 11 4a 11 43 11     t.m.f._.X.Q.J.C.
     efa:	3c 11 35 11 2e 11 27 11 20 11 19 11 12 11 0b 11     <.5...'. .......
     f0a:	04 11 fd 10 f6 10 ef 10 e8 10 e1 10 da 10 d3 10     ................
     f1a:	cc 10 c5 10 be 10 b7 10 b0 10 a9 10 a2 10 9b 10     ................
     f2a:	94 10 8d 10 86 10 7f 10 78 10 71 10 6a 10 63 10     ........x.q.j.c.
     f3a:	5c 10 55 10 4e 10 47 10 40 10 39 10 32 10 2b 10     \.U.N.G.@.9.2.+.
     f4a:	24 10 1d 10 16 10 0f 10 08 10 01 10 fa 0f f3 0f     $...............
     f5a:	ec 0f e5 0f de 0f d7 0f d0 0f c9 0f c2 0f bb 0f     ................
     f6a:	b4 0f ad 0f a6 0f 9f 0f 98 0f 91 0f 8a 0f 83 0f     ................
     f7a:	7c 0f                                               |.

00000f7c <image_data_system8_0x7e>:
     f7c:	06 00 02 01 02 01 00                                .......

00000f83 <image_data_system8_0x7d>:
     f83:	06 00 00 41 41 3e 08                                ...AA>.

00000f8a <image_data_system8_0x7c>:
     f8a:	06 00 00 00 77 00 00                                ....w..

00000f91 <image_data_system8_0x7b>:
     f91:	06 00 08 3e 41 41 00                                ...>AA.

00000f98 <image_data_system8_0x7a>:
     f98:	06 00 64 54 54 4c 00                                ..dTTL.

00000f9f <image_data_system8_0x79>:
     f9f:	06 00 9c a0 60 3c 00                                ....`<.

00000fa6 <image_data_system8_0x78>:
     fa6:	06 00 6c 10 10 6c 00                                ..l..l.

00000fad <image_data_system8_0x77>:
     fad:	06 00 3c 60 30 60 3c                                ..<`0`<

00000fb4 <image_data_system8_0x76>:
     fb4:	06 00 1c 20 40 20 1c                                ... @ .

00000fbb <image_data_system8_0x75>:
     fbb:	06 00 3c 40 20 7c 00                                ..<@ |.

00000fc2 <image_data_system8_0x74>:
     fc2:	06 00 04 3e 44 24 00                                ...>D$.

00000fc9 <image_data_system8_0x73>:
     fc9:	06 00 08 54 54 54 20                                ...TTT 

00000fd0 <image_data_system8_0x72>:
     fd0:	06 00 44 78 44 04 08                                ..DxD..

00000fd7 <image_data_system8_0x71>:
     fd7:	06 00 38 44 44 44 fc                                ..8DDD.

00000fde <image_data_system8_0x70>:
     fde:	06 00 fc 44 44 44 38                                ...DDD8

00000fe5 <image_data_system8_0x6f>:
     fe5:	06 00 38 44 44 44 38                                ..8DDD8

00000fec <image_data_system8_0x6e>:
     fec:	06 00 7c 04 04 78 00                                ..|..x.

00000ff3 <image_data_system8_0x6d>:
     ff3:	06 00 7c 04 18 04 78                                ..|...x

00000ffa <image_data_system8_0x6c>:
     ffa:	06 00 00 00 7f 40 00                                .....@.

00001001 <image_data_system8_0x6b>:
    1001:	06 00 7f 10 28 44 00                                ....(D.

00001008 <image_data_system8_0x6a>:
    1008:	06 00 40 80 84 7d 00                                ..@..}.

0000100f <image_data_system8_0x69>:
    100f:	06 00 00 00 7d 40 00                                ....}@.

00001016 <image_data_system8_0x68>:
    1016:	06 00 7f 04 04 78 00                                .....x.

0000101d <image_data_system8_0x67>:
    101d:	06 00 18 a4 a4 a4 7c                                ......|

00001024 <image_data_system8_0x66>:
    1024:	06 00 08 7e 09 09 00                                ...~...

0000102b <image_data_system8_0x65>:
    102b:	06 00 38 54 54 54 08                                ..8TTT.

00001032 <image_data_system8_0x64>:
    1032:	06 00 38 44 44 44 7f                                ..8DDD.

00001039 <image_data_system8_0x63>:
    1039:	06 00 38 44 44 44 28                                ..8DDD(

00001040 <image_data_system8_0x62>:
    1040:	06 00 7f 44 44 44 38                                ...DDD8

00001047 <image_data_system8_0x61>:
    1047:	06 00 20 54 54 54 78                                .. TTTx

0000104e <image_data_system8_0x60>:
    104e:	06 00 00 03 07 00 00                                .......

00001055 <image_data_system8_0x5f>:
    1055:	06 80 80 80 80 80 80                                .......

0000105c <image_data_system8_0x5e>:
    105c:	06 00 04 02 01 02 04                                .......

00001063 <image_data_system8_0x5d>:
    1063:	06 00 00 41 41 7f 00                                ...AA..

0000106a <image_data_system8_0x5c>:
    106a:	06 00 02 04 08 10 20                                ...... 

00001071 <image_data_system8_0x5b>:
    1071:	06 00 00 7f 41 41 00                                ....AA.

00001078 <image_data_system8_0x5a>:
    1078:	06 00 71 49 45 43 00                                ..qIEC.

0000107f <image_data_system8_0x59>:
    107f:	06 00 07 08 70 08 07                                ....p..

00001086 <image_data_system8_0x58>:
    1086:	06 00 63 14 08 14 63                                ..c...c

0000108d <image_data_system8_0x57>:
    108d:	06 00 3f 40 3c 40 3f                                ..?@<@?

00001094 <image_data_system8_0x56>:
    1094:	06 00 1f 20 40 20 1f                                ... @ .

0000109b <image_data_system8_0x55>:
    109b:	06 00 3f 40 40 40 3f                                ..?@@@?

000010a2 <image_data_system8_0x54>:
    10a2:	06 00 01 01 7f 01 01                                .......

000010a9 <image_data_system8_0x53>:
    10a9:	06 00 26 49 49 49 32                                ..&III2

000010b0 <image_data_system8_0x52>:
    10b0:	06 00 7f 09 09 19 66                                ......f

000010b7 <image_data_system8_0x51>:
    10b7:	06 00 3e 41 51 21 5e                                ..>AQ!^

000010be <image_data_system8_0x50>:
    10be:	06 00 7f 09 09 09 06                                .......

000010c5 <image_data_system8_0x4f>:
    10c5:	06 00 3e 41 41 41 3e                                ..>AAA>

000010cc <image_data_system8_0x4e>:
    10cc:	06 00 7f 02 04 08 7f                                .......

000010d3 <image_data_system8_0x4d>:
    10d3:	06 00 7f 02 04 02 7f                                .......

000010da <image_data_system8_0x4c>:
    10da:	06 00 7f 40 40 40 40                                ...@@@@

000010e1 <image_data_system8_0x4b>:
    10e1:	06 00 7f 08 14 22 41                                ....."A

000010e8 <image_data_system8_0x4a>:
    10e8:	06 00 30 40 40 40 3f                                ..0@@@?

000010ef <image_data_system8_0x49>:
    10ef:	06 00 00 41 7f 41 00                                ...A.A.

000010f6 <image_data_system8_0x48>:
    10f6:	06 00 7f 08 08 08 7f                                .......

000010fd <image_data_system8_0x47>:
    10fd:	06 00 3e 41 49 49 7a                                ..>AIIz

00001104 <image_data_system8_0x46>:
    1104:	06 00 7f 09 09 09 01                                .......

0000110b <image_data_system8_0x45>:
    110b:	06 00 7f 49 49 49 41                                ...IIIA

00001112 <image_data_system8_0x44>:
    1112:	06 00 7f 41 41 41 3e                                ...AAA>

00001119 <image_data_system8_0x43>:
    1119:	06 00 3e 41 41 41 22                                ..>AAA"

00001120 <image_data_system8_0x42>:
    1120:	06 00 7f 49 49 49 36                                ...III6

00001127 <image_data_system8_0x41>:
    1127:	06 00 7e 11 11 11 7e                                ..~...~

0000112e <image_data_system8_0x40>:
    112e:	06 00 3e 41 5d 55 1e                                ..>A]U.

00001135 <image_data_system8_0x3f>:
    1135:	06 00 02 01 59 09 06                                ....Y..

0000113c <image_data_system8_0x3e>:
    113c:	06 00 00 41 22 14 08                                ...A"..

00001143 <image_data_system8_0x3d>:
    1143:	06 00 24 24 24 24 24                                ..$$$$$

0000114a <image_data_system8_0x3c>:
    114a:	06 00 08 14 22 41 00                                ...."A.

00001151 <image_data_system8_0x3b>:
    1151:	06 00 00 ec 6c 00 00                                ....l..

00001158 <image_data_system8_0x3a>:
    1158:	06 00 00 6c 6c 00 00                                ...ll..

0000115f <image_data_system8_0x39>:
    115f:	06 00 06 49 49 29 1e                                ...II).

00001166 <image_data_system8_0x38>:
    1166:	06 00 36 49 49 49 36                                ..6III6

0000116d <image_data_system8_0x37>:
    116d:	06 00 01 71 09 05 03                                ...q...

00001174 <image_data_system8_0x36>:
    1174:	06 00 3c 4a 49 49 30                                ..<JII0

0000117b <image_data_system8_0x35>:
    117b:	06 00 2f 49 49 49 31                                ../III1

00001182 <image_data_system8_0x34>:
    1182:	06 00 18 14 12 7f 10                                .......

00001189 <image_data_system8_0x33>:
    1189:	06 00 22 49 49 49 36                                .."III6

00001190 <image_data_system8_0x32>:
    1190:	06 00 62 51 49 49 46                                ..bQIIF

00001197 <image_data_system8_0x31>:
    1197:	06 00 00 42 7f 40 00                                ...B.@.

0000119e <image_data_system8_0x30>:
    119e:	06 00 3e 51 49 45 3e                                ..>QIE>

000011a5 <image_data_system8_0x2f>:
    11a5:	06 00 20 10 08 04 02                                .. ....

000011ac <image_data_system8_0x2e>:
    11ac:	06 00 00 60 60 00 00                                ...``..

000011b3 <image_data_system8_0x2d>:
    11b3:	06 00 08 08 08 08 08                                .......

000011ba <image_data_system8_0x2c>:
    11ba:	06 00 00 e0 60 00 00                                ....`..

000011c1 <image_data_system8_0x2b>:
    11c1:	06 00 08 08 3e 08 08                                ....>..

000011c8 <image_data_system8_0x2a>:
    11c8:	06 00 08 3e 1c 3e 08                                ...>.>.

000011cf <image_data_system8_0x29>:
    11cf:	06 00 00 41 3e 00 00                                ...A>..

000011d6 <image_data_system8_0x28>:
    11d6:	06 00 00 3e 41 00 00                                ...>A..

000011dd <image_data_system8_0x27>:
    11dd:	06 00 00 07 03 00 00                                .......

000011e4 <image_data_system8_0x26>:
    11e4:	06 00 36 49 56 20 50                                ..6IV P

000011eb <image_data_system8_0x25>:
    11eb:	06 00 63 13 08 64 63                                ..c..dc

000011f2 <image_data_system8_0x24>:
    11f2:	06 00 24 2b 6a 12 00                                ..$+j..

000011f9 <image_data_system8_0x23>:
    11f9:	06 00 24 7e 24 7e 24                                ..$~$~$

00001200 <image_data_system8_0x22>:
    1200:	06 00 07 03 00 07 03                                .......

00001207 <image_data_system8_0x21>:
    1207:	06 00 00 06 5f 06 00                                ...._..

0000120e <image_data_system8_0x20>:
    120e:	06 00 00 00 00 00 00 00                             ........

00001216 <__ctors_end>:
    1216:	11 24       	eor	r1, r1
    1218:	1f be       	out	0x3f, r1	; 63
    121a:	cf ef       	ldi	r28, 0xFF	; 255
    121c:	d8 e0       	ldi	r29, 0x08	; 8
    121e:	de bf       	out	0x3e, r29	; 62
    1220:	cd bf       	out	0x3d, r28	; 61

00001222 <__do_clear_bss>:
    1222:	23 e0       	ldi	r18, 0x03	; 3
    1224:	a0 e0       	ldi	r26, 0x00	; 0
    1226:	b1 e0       	ldi	r27, 0x01	; 1
    1228:	01 c0       	rjmp	.+2      	; 0x122c <.do_clear_bss_start>

0000122a <.do_clear_bss_loop>:
    122a:	1d 92       	st	X+, r1

0000122c <.do_clear_bss_start>:
    122c:	a6 30       	cpi	r26, 0x06	; 6
    122e:	b2 07       	cpc	r27, r18
    1230:	e1 f7       	brne	.-8      	; 0x122a <.do_clear_bss_loop>
    1232:	0e 94 31 09 	call	0x1262	; 0x1262 <main>
    1236:	0c 94 a5 0a 	jmp	0x154a	; 0x154a <_exit>

0000123a <__bad_interrupt>:
    123a:	0c 94 00 00 	jmp	0	; 0x0 <__vectors>

0000123e <SPI_init>:
#include "SPI.h"
#include <avr/io.h>

void SPI_init()
{
	DDRB=_BV(PB3) | _BV(PB5);      //Piny SCK i MOSI s¹ wyjœciami
    123e:	88 e2       	ldi	r24, 0x28	; 40
    1240:	84 b9       	out	0x04, r24	; 4
	SPCR=_BV(SPE) | _BV(MSTR);//  | _BV(CPOL) | _BV(CPHA);  //Tryb SPI3, taktowanie CLK/2
    1242:	80 e5       	ldi	r24, 0x50	; 80
    1244:	8c bd       	out	0x2c, r24	; 44
    1246:	08 95       	ret

00001248 <SPI_RW_Byte>:
	//SPSR=_BV(SPI2X);        //Taktujemy interfejs dwukrotnie szybciej
}

void SPI_RW_Byte(uint8_t byte)
{
	SPDR=byte;                     //Wyœlij bajt danych
    1248:	8e bd       	out	0x2e, r24	; 46
	while(!(SPSR & (1<<SPIF)));    //Zaczekaj a¿ bajt zostanie wys³any
    124a:	0d b4       	in	r0, 0x2d	; 45
    124c:	07 fe       	sbrs	r0, 7
    124e:	fd cf       	rjmp	.-6      	; 0x124a <SPI_RW_Byte+0x2>
	SPDR;                          //Odczytaj rejestr odbiornika dla wyzerowania SPIF
    1250:	8e b5       	in	r24, 0x2e	; 46
    1252:	08 95       	ret

00001254 <LCD_Init>:
	TCCR1B=_BV(WGM12) | _BV(CS11);   //Preskaler 8, na wyjœciu otrzymamy ok. 2 kHz
}

void LCD_Init()
{
	SET(DDR, ST7565_RESET);   //Pin RESET
    1254:	39 9a       	sbi	0x07, 1	; 7
	SET(DDR, ST7565_A0);
    1256:	3a 9a       	sbi	0x07, 2	; 7
	SET(DDR, ST7565_SCK);
    1258:	25 9a       	sbi	0x04, 5	; 4
	SET(DDR, ST7565_MOSI);
    125a:	23 9a       	sbi	0x04, 3	; 4
	SET(DDR, ST7565_CS);
    125c:	38 9a       	sbi	0x07, 0	; 7

	st7565r_init();           //Zainicjuj kontroler
    125e:	0c 94 7e 09 	jmp	0x12fc	; 0x12fc <st7565r_init>

00001262 <main>:
extern const __flash uint8_t* const __flash system8_array[];


int main(void)
{
	SPI_init();
    1262:	0e 94 1f 09 	call	0x123e	; 0x123e <SPI_init>
	LCD_Init();
    1266:	0e 94 2a 09 	call	0x1254	; 0x1254 <LCD_Init>
	//LCD_BackLight_Init();  //W³¹cz podœwietlenie

	st7565r_Clear(false);
    126a:	80 e0       	ldi	r24, 0x00	; 0
    126c:	0e 94 dd 09 	call	0x13ba	; 0x13ba <st7565r_Clear>

	st7565r_SetText(0, 0, PSTR("Hello World !!!"), system8_array);
    1270:	0a eb       	ldi	r16, 0xBA	; 186
    1272:	1e e0       	ldi	r17, 0x0E	; 14
    1274:	28 e8       	ldi	r18, 0x88	; 136
    1276:	30 e0       	ldi	r19, 0x00	; 0
    1278:	40 e0       	ldi	r20, 0x00	; 0
    127a:	60 e0       	ldi	r22, 0x00	; 0
    127c:	80 e0       	ldi	r24, 0x00	; 0
    127e:	0e 94 f5 09 	call	0x13ea	; 0x13ea <st7565r_SetText>
	st7565r_SetText(0, 8, PSTR("Hello World !!!"), system12_array);
    1282:	01 ea       	ldi	r16, 0xA1	; 161
    1284:	1a e0       	ldi	r17, 0x0A	; 10
    1286:	28 e7       	ldi	r18, 0x78	; 120
    1288:	30 e0       	ldi	r19, 0x00	; 0
    128a:	40 e0       	ldi	r20, 0x00	; 0
    128c:	68 e0       	ldi	r22, 0x08	; 8
    128e:	80 e0       	ldi	r24, 0x00	; 0
    1290:	0e 94 f5 09 	call	0x13ea	; 0x13ea <st7565r_SetText>
	st7565r_SetText(0, 20, PSTR("Hello World !!!"), system16_array);
    1294:	08 e9       	ldi	r16, 0x98	; 152
    1296:	10 e0       	ldi	r17, 0x00	; 0
    1298:	28 e6       	ldi	r18, 0x68	; 104
    129a:	30 e0       	ldi	r19, 0x00	; 0
    129c:	40 e0       	ldi	r20, 0x00	; 0
    129e:	64 e1       	ldi	r22, 0x14	; 20
    12a0:	80 e0       	ldi	r24, 0x00	; 0
    12a2:	0e 94 f5 09 	call	0x13ea	; 0x13ea <st7565r_SetText>
	st7565r_CpyDirtyPages();
    12a6:	0e 94 a1 09 	call	0x1342	; 0x1342 <st7565r_CpyDirtyPages>
    12aa:	ff cf       	rjmp	.-2      	; 0x12aa <main+0x48>

000012ac <st7565r_wr_cmd>:
	if(state == ST_High) SET(PORT, ST7565_A0); else CLR(PORT, ST7565_A0);
}

static inline void st7565r_CS_pin(enum st7565r state)
{
	if(state == ST_High) SET(PORT, ST7565_CS); else CLR(PORT, ST7565_CS);
    12ac:	40 98       	cbi	0x08, 0	; 8
	if(state == ST_High) SET(PORT, ST7565_RESET); else CLR(PORT, ST7565_RESET);
}

static inline void st7565r_A0_pin(enum st7565r state)
{
	if(state == ST_High) SET(PORT, ST7565_A0); else CLR(PORT, ST7565_A0);
    12ae:	42 98       	cbi	0x08, 2	; 8

static inline void st7565r_wr_cmd(uint8_t cmd)
{
	st7565r_CS_pin(ST_Low);   //Wybierz uk³ad
	st7565r_A0_pin(ST_Low);   //Wybierz tryb przesy³ania polecenia
	SPI_RW_Byte(cmd);		  //Wyœlij polecenie
    12b0:	0e 94 24 09 	call	0x1248	; 0x1248 <SPI_RW_Byte>
	if(state == ST_High) SET(PORT, ST7565_A0); else CLR(PORT, ST7565_A0);
}

static inline void st7565r_CS_pin(enum st7565r state)
{
	if(state == ST_High) SET(PORT, ST7565_CS); else CLR(PORT, ST7565_CS);
    12b4:	40 9a       	sbi	0x08, 0	; 8
    12b6:	08 95       	ret

000012b8 <st7565r_reset>:
uint8_t LCD_FrameBuffer[GFX_SCREEN_HEIGHT / 8][GFX_SCREEN_WIDTH + 1];  //Bufor obrazu, ostatni bajt wiersza wskazuje na koniecznoœæ przerysowania strony
uint8_t GLCD_x, GLCD_y;

static inline void st7565r_Reset_pin(enum st7565r state)
{
	if(state == ST_High) SET(PORT, ST7565_RESET); else CLR(PORT, ST7565_RESET);
    12b8:	41 98       	cbi	0x08, 1	; 8
	#else
		//round up by default
		__ticks_dc = (uint32_t)(ceil(fabs(__tmp)));
	#endif

	__builtin_avr_delay_cycles(__ticks_dc);
    12ba:	85 e3       	ldi	r24, 0x35	; 53
    12bc:	8a 95       	dec	r24
    12be:	f1 f7       	brne	.-4      	; 0x12bc <st7565r_reset+0x4>
    12c0:	00 00       	nop
    12c2:	41 9a       	sbi	0x08, 1	; 8
    12c4:	85 e3       	ldi	r24, 0x35	; 53
    12c6:	8a 95       	dec	r24
    12c8:	f1 f7       	brne	.-4      	; 0x12c6 <st7565r_reset+0xe>
    12ca:	00 00       	nop
    12cc:	08 95       	ret

000012ce <st7565r_wr_data>:
	if(state == ST_High) SET(PORT, ST7565_A0); else CLR(PORT, ST7565_A0);
}

static inline void st7565r_CS_pin(enum st7565r state)
{
	if(state == ST_High) SET(PORT, ST7565_CS); else CLR(PORT, ST7565_CS);
    12ce:	40 98       	cbi	0x08, 0	; 8
	if(state == ST_High) SET(PORT, ST7565_RESET); else CLR(PORT, ST7565_RESET);
}

static inline void st7565r_A0_pin(enum st7565r state)
{
	if(state == ST_High) SET(PORT, ST7565_A0); else CLR(PORT, ST7565_A0);
    12d0:	42 9a       	sbi	0x08, 2	; 8

void st7565r_wr_data(uint8_t data)
{
	st7565r_CS_pin(ST_Low);   //Wybierz uk³ad
	st7565r_A0_pin(ST_High);  //Wybierz tryb przesy³ania danych
	SPI_RW_Byte(data);
    12d2:	0e 94 24 09 	call	0x1248	; 0x1248 <SPI_RW_Byte>
	if(state == ST_High) SET(PORT, ST7565_RESET); else CLR(PORT, ST7565_RESET);
}

static inline void st7565r_A0_pin(enum st7565r state)
{
	if(state == ST_High) SET(PORT, ST7565_A0); else CLR(PORT, ST7565_A0);
    12d6:	42 98       	cbi	0x08, 2	; 8
}

static inline void st7565r_CS_pin(enum st7565r state)
{
	if(state == ST_High) SET(PORT, ST7565_CS); else CLR(PORT, ST7565_CS);
    12d8:	40 9a       	sbi	0x08, 0	; 8
    12da:	08 95       	ret

000012dc <st7565r_set_contrast>:
	if (onoff) st7565r_wr_cmd(ST7565R_CMD_DISPLAY_ALL_POINTS_ON);
	 else st7565r_wr_cmd(ST7565R_CMD_DISPLAY_ALL_POINTS_OFF);
}

void st7565r_set_contrast(uint8_t contrast) //Uwaga - Ÿle dobrany kontrast (przekroczenie napiêcia) mo¿e uszkodziæ LCD
{
    12dc:	cf 93       	push	r28
    12de:	c8 2f       	mov	r28, r24
	if (contrast < ST7565R_DISPLAY_CONTRAST_MIN)  contrast=ST7565R_DISPLAY_CONTRAST_MIN;
    12e0:	85 30       	cpi	r24, 0x05	; 5
    12e2:	20 f0       	brcs	.+8      	; 0x12ec <st7565r_set_contrast+0x10>
	if (contrast > ST7565R_DISPLAY_CONTRAST_MAX)  contrast=ST7565R_DISPLAY_CONTRAST_MAX;
    12e4:	89 32       	cpi	r24, 0x29	; 41
    12e6:	18 f0       	brcs	.+6      	; 0x12ee <st7565r_set_contrast+0x12>
    12e8:	c8 e2       	ldi	r28, 0x28	; 40
    12ea:	01 c0       	rjmp	.+2      	; 0x12ee <st7565r_set_contrast+0x12>
	 else st7565r_wr_cmd(ST7565R_CMD_DISPLAY_ALL_POINTS_OFF);
}

void st7565r_set_contrast(uint8_t contrast) //Uwaga - Ÿle dobrany kontrast (przekroczenie napiêcia) mo¿e uszkodziæ LCD
{
	if (contrast < ST7565R_DISPLAY_CONTRAST_MIN)  contrast=ST7565R_DISPLAY_CONTRAST_MIN;
    12ec:	c5 e0       	ldi	r28, 0x05	; 5
	if (contrast > ST7565R_DISPLAY_CONTRAST_MAX)  contrast=ST7565R_DISPLAY_CONTRAST_MAX;
	st7565r_wr_cmd(ST7565R_CMD_ELECTRONIC_VOLUME_MODE_SET);
    12ee:	81 e8       	ldi	r24, 0x81	; 129
    12f0:	0e 94 56 09 	call	0x12ac	; 0x12ac <st7565r_wr_cmd>
	st7565r_wr_cmd(contrast);
    12f4:	8c 2f       	mov	r24, r28
}
    12f6:	cf 91       	pop	r28
void st7565r_set_contrast(uint8_t contrast) //Uwaga - Ÿle dobrany kontrast (przekroczenie napiêcia) mo¿e uszkodziæ LCD
{
	if (contrast < ST7565R_DISPLAY_CONTRAST_MIN)  contrast=ST7565R_DISPLAY_CONTRAST_MIN;
	if (contrast > ST7565R_DISPLAY_CONTRAST_MAX)  contrast=ST7565R_DISPLAY_CONTRAST_MAX;
	st7565r_wr_cmd(ST7565R_CMD_ELECTRONIC_VOLUME_MODE_SET);
	st7565r_wr_cmd(contrast);
    12f8:	0c 94 56 09 	jmp	0x12ac	; 0x12ac <st7565r_wr_cmd>

000012fc <st7565r_init>:
}

void st7565r_init()
{
	st7565r_reset();
    12fc:	0e 94 5c 09 	call	0x12b8	; 0x12b8 <st7565r_reset>
	st7565r_wr_cmd(ST7565R_CMD_ADC_NORMAL);              //Zwiêkszaj adres kolumny
    1300:	80 ea       	ldi	r24, 0xA0	; 160
    1302:	0e 94 56 09 	call	0x12ac	; 0x12ac <st7565r_wr_cmd>
	st7565r_wr_cmd(ST7565R_CMD_DISPLAY_NORMAL);          //W³¹cz normalny tryb wyœwietlania (nie testowy)
    1306:	86 ea       	ldi	r24, 0xA6	; 166
    1308:	0e 94 56 09 	call	0x12ac	; 0x12ac <st7565r_wr_cmd>
	st7565r_wr_cmd(ST7565R_CMD_REVERSE_SCAN_DIRECTION);  //Tryb sterowania elektrodami
    130c:	88 ec       	ldi	r24, 0xC8	; 200
    130e:	0e 94 56 09 	call	0x12ac	; 0x12ac <st7565r_wr_cmd>
	st7565r_wr_cmd(ST7565R_CMD_LCD_BIAS_1_DIV_6_DUTY33); //Ustaw bias voltage na 1/6
    1312:	82 ea       	ldi	r24, 0xA2	; 162
    1314:	0e 94 56 09 	call	0x12ac	; 0x12ac <st7565r_wr_cmd>
	st7565r_wr_cmd(ST7565R_CMD_POWER_CTRL_ALL_ON);       //W³¹cz wszystkie elementy sterownika
    1318:	8f e2       	ldi	r24, 0x2F	; 47
    131a:	0e 94 56 09 	call	0x12ac	; 0x12ac <st7565r_wr_cmd>
	st7565r_wr_cmd(ST7565R_CMD_BOOSTER_RATIO_SET);       //Konfiguracja boostera
    131e:	88 ef       	ldi	r24, 0xF8	; 248
    1320:	0e 94 56 09 	call	0x12ac	; 0x12ac <st7565r_wr_cmd>
	st7565r_wr_cmd(ST7565R_CMD_BOOSTER_RATIO_2X_3X_4X);
    1324:	80 e0       	ldi	r24, 0x00	; 0
    1326:	0e 94 56 09 	call	0x12ac	; 0x12ac <st7565r_wr_cmd>
	st7565r_wr_cmd(ST7565R_CMD_VOLTAGE_RESISTOR_RATIO_7);
    132a:	87 e2       	ldi	r24, 0x27	; 39
    132c:	0e 94 56 09 	call	0x12ac	; 0x12ac <st7565r_wr_cmd>
	st7565r_set_contrast(0x10);
    1330:	80 e1       	ldi	r24, 0x10	; 16
    1332:	0e 94 6e 09 	call	0x12dc	; 0x12dc <st7565r_set_contrast>
}

void st7565r_set_display_start_line_address(uint8_t address)
{
	address &= 0x3F;
	st7565r_wr_cmd(ST7565R_CMD_START_LINE_SET | address);
    1336:	80 e4       	ldi	r24, 0x40	; 64
    1338:	0e 94 56 09 	call	0x12ac	; 0x12ac <st7565r_wr_cmd>
}

static inline void st7565r_display_on(_Bool onoff)
{
	if(onoff) st7565r_wr_cmd(ST7565R_CMD_DISPLAY_ON);
    133c:	8f ea       	ldi	r24, 0xAF	; 175
    133e:	0c 94 56 09 	jmp	0x12ac	; 0x12ac <st7565r_wr_cmd>

00001342 <st7565r_CpyDirtyPages>:
		ptr++; //Synchronizacja ze wzglêdu na bajt Dirty w buforze
	}
}

void st7565r_CpyDirtyPages()
{
    1342:	cf 92       	push	r12
    1344:	df 92       	push	r13
    1346:	ef 92       	push	r14
    1348:	ff 92       	push	r15
    134a:	0f 93       	push	r16
    134c:	1f 93       	push	r17
    134e:	cf 93       	push	r28
    1350:	df 93       	push	r29
	uint8_t *ptr=(uint8_t*)LCD_FrameBuffer;
	for(uint8_t y=0; y < (GFX_SCREEN_HEIGHT >> 3); y++)
    1352:	d1 2c       	mov	r13, r1
	}
}

void st7565r_CpyDirtyPages()
{
	uint8_t *ptr=(uint8_t*)LCD_FrameBuffer;
    1354:	c2 e0       	ldi	r28, 0x02	; 2
    1356:	d1 e0       	ldi	r29, 0x01	; 1
		if(ptr[GFX_SCREEN_WIDTH] == BufferDirty)  //Wysy³amy dane tylko jeœli dana strona by³a zmieniona
		{
			st7565r_set_page_address(y);
			st7565r_set_column_address(0);
			for(uint8_t x=0; x < GFX_SCREEN_WIDTH; x++) st7565r_wr_data(*ptr++);
			*ptr++=BufferClean;                //Skasuj flagê Dirty
    1358:	83 e0       	ldi	r24, 0x03	; 3
    135a:	c8 2e       	mov	r12, r24
void st7565r_CpyDirtyPages()
{
	uint8_t *ptr=(uint8_t*)LCD_FrameBuffer;
	for(uint8_t y=0; y < (GFX_SCREEN_HEIGHT >> 3); y++)
	{
		if(ptr[GFX_SCREEN_WIDTH] == BufferDirty)  //Wysy³amy dane tylko jeœli dana strona by³a zmieniona
    135c:	7e 01       	movw	r14, r28
    135e:	80 e8       	ldi	r24, 0x80	; 128
    1360:	e8 0e       	add	r14, r24
    1362:	f1 1c       	adc	r15, r1
    1364:	f7 01       	movw	r30, r14
    1366:	80 81       	ld	r24, Z
    1368:	82 30       	cpi	r24, 0x02	; 2
    136a:	c1 f4       	brne	.+48     	; 0x139c <st7565r_CpyDirtyPages+0x5a>
}

static inline void st7565r_set_page_address(uint8_t address)
{
	address&=0x0F; //Zadres to tylko 4 bity
	st7565r_wr_cmd(ST7565R_CMD_PAGE_ADDRESS_SET | address);
    136c:	8d 2d       	mov	r24, r13
    136e:	80 6b       	ori	r24, 0xB0	; 176
    1370:	0e 94 56 09 	call	0x12ac	; 0x12ac <st7565r_wr_cmd>
}

static inline void st7565r_set_column_address(uint8_t address)
{
	address &= 0x7F;   //Adres to 7 najm³odszych bitów
	st7565r_wr_cmd(ST7565R_CMD_COLUMN_ADDRESS_SET_MSB | (address >> 4));
    1374:	80 e1       	ldi	r24, 0x10	; 16
    1376:	0e 94 56 09 	call	0x12ac	; 0x12ac <st7565r_wr_cmd>
	st7565r_wr_cmd(ST7565R_CMD_COLUMN_ADDRESS_SET_LSB | (address & 0x0F));
    137a:	80 e0       	ldi	r24, 0x00	; 0
    137c:	0e 94 56 09 	call	0x12ac	; 0x12ac <st7565r_wr_cmd>
    1380:	8e 01       	movw	r16, r28
    1382:	f8 01       	movw	r30, r16
    1384:	e8 01       	movw	r28, r16
    1386:	21 96       	adiw	r28, 0x01	; 1
	{
		if(ptr[GFX_SCREEN_WIDTH] == BufferDirty)  //Wysy³amy dane tylko jeœli dana strona by³a zmieniona
		{
			st7565r_set_page_address(y);
			st7565r_set_column_address(0);
			for(uint8_t x=0; x < GFX_SCREEN_WIDTH; x++) st7565r_wr_data(*ptr++);
    1388:	0e 15       	cp	r16, r14
    138a:	1f 05       	cpc	r17, r15
    138c:	29 f0       	breq	.+10     	; 0x1398 <st7565r_CpyDirtyPages+0x56>
    138e:	8e 01       	movw	r16, r28
    1390:	80 81       	ld	r24, Z
    1392:	0e 94 67 09 	call	0x12ce	; 0x12ce <st7565r_wr_data>
    1396:	f5 cf       	rjmp	.-22     	; 0x1382 <st7565r_CpyDirtyPages+0x40>
			*ptr++=BufferClean;                //Skasuj flagê Dirty
    1398:	c0 82       	st	Z, r12
    139a:	02 c0       	rjmp	.+4      	; 0x13a0 <st7565r_CpyDirtyPages+0x5e>
		} else ptr+=GFX_SCREEN_WIDTH+1;
    139c:	cf 57       	subi	r28, 0x7F	; 127
    139e:	df 4f       	sbci	r29, 0xFF	; 255
}

void st7565r_CpyDirtyPages()
{
	uint8_t *ptr=(uint8_t*)LCD_FrameBuffer;
	for(uint8_t y=0; y < (GFX_SCREEN_HEIGHT >> 3); y++)
    13a0:	d3 94       	inc	r13
    13a2:	f4 e0       	ldi	r31, 0x04	; 4
    13a4:	df 12       	cpse	r13, r31
    13a6:	da cf       	rjmp	.-76     	; 0x135c <st7565r_CpyDirtyPages+0x1a>
			st7565r_set_column_address(0);
			for(uint8_t x=0; x < GFX_SCREEN_WIDTH; x++) st7565r_wr_data(*ptr++);
			*ptr++=BufferClean;                //Skasuj flagê Dirty
		} else ptr+=GFX_SCREEN_WIDTH+1;
	}
}
    13a8:	df 91       	pop	r29
    13aa:	cf 91       	pop	r28
    13ac:	1f 91       	pop	r17
    13ae:	0f 91       	pop	r16
    13b0:	ff 90       	pop	r15
    13b2:	ef 90       	pop	r14
    13b4:	df 90       	pop	r13
    13b6:	cf 90       	pop	r12
    13b8:	08 95       	ret

000013ba <st7565r_Clear>:

void st7565r_Clear(_Bool color)
{
	uint8_t pix=0;
	if(color) pix=0xff;
    13ba:	81 95       	neg	r24
	uint8_t *ptr=(uint8_t*)LCD_FrameBuffer;
    13bc:	22 e0       	ldi	r18, 0x02	; 2
    13be:	31 e0       	ldi	r19, 0x01	; 1
	for(uint8_t y=0; y < (GFX_SCREEN_HEIGHT >> 3); y++)
	{
		for(uint16_t i=0; i < GFX_SCREEN_WIDTH; i++) *ptr++=pix;
		*ptr++=BufferDirty; //Bajt dirty
    13c0:	92 e0       	ldi	r25, 0x02	; 2
		} else ptr+=GFX_SCREEN_WIDTH+1;
	}
}

void st7565r_Clear(_Bool color)
{
    13c2:	f9 01       	movw	r30, r18
    13c4:	40 e0       	ldi	r20, 0x00	; 0
    13c6:	50 e0       	ldi	r21, 0x00	; 0
	uint8_t pix=0;
	if(color) pix=0xff;
	uint8_t *ptr=(uint8_t*)LCD_FrameBuffer;
	for(uint8_t y=0; y < (GFX_SCREEN_HEIGHT >> 3); y++)
	{
		for(uint16_t i=0; i < GFX_SCREEN_WIDTH; i++) *ptr++=pix;
    13c8:	81 93       	st	Z+, r24
    13ca:	4f 5f       	subi	r20, 0xFF	; 255
    13cc:	5f 4f       	sbci	r21, 0xFF	; 255
    13ce:	40 38       	cpi	r20, 0x80	; 128
    13d0:	51 05       	cpc	r21, r1
    13d2:	d1 f7       	brne	.-12     	; 0x13c8 <st7565r_Clear+0xe>
    13d4:	2f 57       	subi	r18, 0x7F	; 127
    13d6:	3f 4f       	sbci	r19, 0xFF	; 255
    13d8:	f9 01       	movw	r30, r18
    13da:	31 97       	sbiw	r30, 0x01	; 1
		*ptr++=BufferDirty; //Bajt dirty
    13dc:	90 83       	st	Z, r25
void st7565r_Clear(_Bool color)
{
	uint8_t pix=0;
	if(color) pix=0xff;
	uint8_t *ptr=(uint8_t*)LCD_FrameBuffer;
	for(uint8_t y=0; y < (GFX_SCREEN_HEIGHT >> 3); y++)
    13de:	43 e0       	ldi	r20, 0x03	; 3
    13e0:	26 30       	cpi	r18, 0x06	; 6
    13e2:	34 07       	cpc	r19, r20
    13e4:	71 f7       	brne	.-36     	; 0x13c2 <st7565r_Clear+0x8>
	{
		for(uint16_t i=0; i < GFX_SCREEN_WIDTH; i++) *ptr++=pix;
		*ptr++=BufferDirty; //Bajt dirty
	}
	st7565r_CpyDirtyPages();
    13e6:	0c 94 a1 09 	jmp	0x1342	; 0x1342 <st7565r_CpyDirtyPages>

000013ea <st7565r_SetText>:
        }
    }
}

void st7565r_SetText(uint8_t x, uint8_t y, const __memx char *tekst, const uint8_t __flash * const __flash font[])
{
    13ea:	3f 92       	push	r3
    13ec:	4f 92       	push	r4
    13ee:	5f 92       	push	r5
    13f0:	6f 92       	push	r6
    13f2:	7f 92       	push	r7
    13f4:	8f 92       	push	r8
    13f6:	9f 92       	push	r9
    13f8:	af 92       	push	r10
    13fa:	bf 92       	push	r11
    13fc:	cf 92       	push	r12
    13fe:	df 92       	push	r13
    1400:	ef 92       	push	r14
    1402:	ff 92       	push	r15
    1404:	0f 93       	push	r16
    1406:	1f 93       	push	r17
    1408:	cf 93       	push	r28
    140a:	df 93       	push	r29
    140c:	00 d0       	rcall	.+0      	; 0x140e <st7565r_SetText+0x24>
    140e:	00 d0       	rcall	.+0      	; 0x1410 <st7565r_SetText+0x26>
    1410:	cd b7       	in	r28, 0x3d	; 61
    1412:	de b7       	in	r29, 0x3e	; 62
	uint8_t rows=(uint8_t)(uint16_t)font[0]; //Pobierz wysokoœæ fontu
    1414:	f8 01       	movw	r30, r16
    1416:	a5 91       	lpm	r26, Z+
    1418:	b5 91       	lpm	r27, Z+
    141a:	7a 2e       	mov	r7, r26
	y+=rows-1;
    141c:	61 50       	subi	r22, 0x01	; 1
    141e:	6a 0f       	add	r22, r26
		uint8_t col=*znak++;                     //Szerokoœæ znaku w pikselach
		uint8_t page=0, coldesc=0, colmask=0;

		for(uint8_t ox=0; ox < col; ox++)        //Wyœwietlamy kolejne kolumny tworz¹ce znak
		{
			uint8_t dispmask=1 << (y % 8);
    1420:	96 2f       	mov	r25, r22
    1422:	97 70       	andi	r25, 0x07	; 7
    1424:	51 e0       	ldi	r21, 0x01	; 1
    1426:	a5 2e       	mov	r10, r21
    1428:	01 c0       	rjmp	.+2      	; 0x142c <st7565r_SetText+0x42>
    142a:	aa 0c       	add	r10, r10
    142c:	9a 95       	dec	r25
    142e:	ea f7       	brpl	.-6      	; 0x142a <st7565r_SetText+0x40>
    1430:	69 01       	movw	r12, r18
    1432:	e4 2e       	mov	r14, r20
    1434:	70 e0       	ldi	r23, 0x00	; 0
				{
					colmask=0x80;
					coldesc=*znak++;             //Pobierz bajt opisu znaku
				}
				page=((y - oy) >> 3) & 0b111;    //Zabezpieczenie przed zapisem poza bufor
				LCD_FrameBuffer[page][x]&=~dispmask;
    1436:	a1 e8       	ldi	r26, 0x81	; 129
    1438:	fa 2e       	mov	r15, r26
				if(coldesc & colmask) LCD_FrameBuffer[page][x]|=dispmask;
				colmask>>=1;
				dispmask>>=1;
				if(dispmask == 0)   //Przekraczamy stronê - nale¿y zapisaæ kompletny bajt
				{
					LCD_FrameBuffer[page][GFX_SCREEN_WIDTH]=BufferDirty;
    143a:	b2 e0       	ldi	r27, 0x02	; 2
    143c:	bb 2e       	mov	r11, r27
{
	uint8_t rows=(uint8_t)(uint16_t)font[0]; //Pobierz wysokoœæ fontu
	y+=rows-1;
	char ch;

	while((ch=*tekst++))  //Wyœwietl kolejne znaki a¿ do koñca tekstu (znaku NUL)
    143e:	f6 01       	movw	r30, r12
    1440:	94 91       	lpm	r25, Z
    1442:	e7 fc       	sbrc	r14, 7
    1444:	90 81       	ld	r25, Z
    1446:	99 23       	and	r25, r25
    1448:	09 f4       	brne	.+2      	; 0x144c <st7565r_SetText+0x62>
    144a:	69 c0       	rjmp	.+210    	; 0x151e <st7565r_SetText+0x134>
	{
		const uint8_t __flash *znak=font[ch-30]; //Adres pocz¹tku opisu znaku
    144c:	f8 01       	movw	r30, r16
    144e:	e9 0f       	add	r30, r25
    1450:	f1 1d       	adc	r31, r1
    1452:	e9 0f       	add	r30, r25
    1454:	f1 1d       	adc	r31, r1
    1456:	fc 97       	sbiw	r30, 0x3c	; 60
    1458:	05 90       	lpm	r0, Z+
    145a:	f4 91       	lpm	r31, Z
    145c:	e0 2d       	mov	r30, r0
		uint8_t col=*znak++;                     //Szerokoœæ znaku w pikselach
    145e:	af 01       	movw	r20, r30
    1460:	4f 5f       	subi	r20, 0xFF	; 255
    1462:	5f 4f       	sbci	r21, 0xFF	; 255
    1464:	94 90       	lpm	r9, Z
    1466:	98 0e       	add	r9, r24
		uint8_t page=0, coldesc=0, colmask=0;
    1468:	90 e0       	ldi	r25, 0x00	; 0
    146a:	81 2c       	mov	r8, r1
    146c:	61 2c       	mov	r6, r1

		for(uint8_t ox=0; ox < col; ox++)        //Wyœwietlamy kolejne kolumny tworz¹ce znak
    146e:	89 15       	cp	r24, r9
    1470:	09 f4       	brne	.+2      	; 0x1474 <st7565r_SetText+0x8a>
    1472:	50 c0       	rjmp	.+160    	; 0x1514 <st7565r_SetText+0x12a>
		{
			uint8_t dispmask=1 << (y % 8);
    1474:	5a 2c       	mov	r5, r10
			for(uint8_t oy=0; oy < rows; oy++)   //Narysuj jedn¹ kolumnê znaku
    1476:	20 e0       	ldi	r18, 0x00	; 0
    1478:	30 e0       	ldi	r19, 0x00	; 0
				{
					colmask=0x80;
					coldesc=*znak++;             //Pobierz bajt opisu znaku
				}
				page=((y - oy) >> 3) & 0b111;    //Zabezpieczenie przed zapisem poza bufor
				LCD_FrameBuffer[page][x]&=~dispmask;
    147a:	a8 2f       	mov	r26, r24
    147c:	b0 e0       	ldi	r27, 0x00	; 0
    147e:	ba 83       	std	Y+2, r27	; 0x02
    1480:	a9 83       	std	Y+1, r26	; 0x01
		uint8_t page=0, coldesc=0, colmask=0;

		for(uint8_t ox=0; ox < col; ox++)        //Wyœwietlamy kolejne kolumny tworz¹ce znak
		{
			uint8_t dispmask=1 << (y % 8);
			for(uint8_t oy=0; oy < rows; oy++)   //Narysuj jedn¹ kolumnê znaku
    1482:	27 15       	cp	r18, r7
    1484:	c8 f5       	brcc	.+114    	; 0x14f8 <st7565r_SetText+0x10e>
			{
				if(colmask == 0)
    1486:	91 11       	cpse	r25, r1
    1488:	05 c0       	rjmp	.+10     	; 0x1494 <st7565r_SetText+0xaa>
				{
					colmask=0x80;
					coldesc=*znak++;             //Pobierz bajt opisu znaku
    148a:	fa 01       	movw	r30, r20
    148c:	84 90       	lpm	r8, Z
    148e:	4f 5f       	subi	r20, 0xFF	; 255
    1490:	5f 4f       	sbci	r21, 0xFF	; 255
			uint8_t dispmask=1 << (y % 8);
			for(uint8_t oy=0; oy < rows; oy++)   //Narysuj jedn¹ kolumnê znaku
			{
				if(colmask == 0)
				{
					colmask=0x80;
    1492:	90 e8       	ldi	r25, 0x80	; 128
    1494:	db 01       	movw	r26, r22
    1496:	a2 1b       	sub	r26, r18
    1498:	b3 0b       	sbc	r27, r19
					coldesc=*znak++;             //Pobierz bajt opisu znaku
				}
				page=((y - oy) >> 3) & 0b111;    //Zabezpieczenie przed zapisem poza bufor
    149a:	f3 e0       	ldi	r31, 0x03	; 3
    149c:	b5 95       	asr	r27
    149e:	a7 95       	ror	r26
    14a0:	fa 95       	dec	r31
    14a2:	e1 f7       	brne	.-8      	; 0x149c <st7565r_SetText+0xb2>
    14a4:	fa 2f       	mov	r31, r26
    14a6:	f7 70       	andi	r31, 0x07	; 7
    14a8:	6f 2e       	mov	r6, r31
				LCD_FrameBuffer[page][x]&=~dispmask;
    14aa:	45 2c       	mov	r4, r5
    14ac:	40 94       	com	r4
    14ae:	af 2f       	mov	r26, r31
    14b0:	b0 e0       	ldi	r27, 0x00	; 0
    14b2:	bc 83       	std	Y+4, r27	; 0x04
    14b4:	ab 83       	std	Y+3, r26	; 0x03
    14b6:	a9 81       	ldd	r26, Y+1	; 0x01
    14b8:	ba 81       	ldd	r27, Y+2	; 0x02
    14ba:	ff 9e       	mul	r15, r31
    14bc:	a0 0d       	add	r26, r0
    14be:	b1 1d       	adc	r27, r1
    14c0:	11 24       	eor	r1, r1
    14c2:	ae 5f       	subi	r26, 0xFE	; 254
    14c4:	be 4f       	sbci	r27, 0xFE	; 254
    14c6:	3c 90       	ld	r3, X
    14c8:	43 20       	and	r4, r3
				if(coldesc & colmask) LCD_FrameBuffer[page][x]|=dispmask;
    14ca:	39 2e       	mov	r3, r25
    14cc:	38 20       	and	r3, r8
    14ce:	09 f0       	breq	.+2      	; 0x14d2 <st7565r_SetText+0xe8>
    14d0:	45 28       	or	r4, r5
    14d2:	4c 92       	st	X, r4
				colmask>>=1;
    14d4:	96 95       	lsr	r25
				dispmask>>=1;
    14d6:	56 94       	lsr	r5
				if(dispmask == 0)   //Przekraczamy stronê - nale¿y zapisaæ kompletny bajt
    14d8:	61 f4       	brne	.+24     	; 0x14f2 <st7565r_SetText+0x108>
				{
					LCD_FrameBuffer[page][GFX_SCREEN_WIDTH]=BufferDirty;
    14da:	eb 81       	ldd	r30, Y+3	; 0x03
    14dc:	fc 81       	ldd	r31, Y+4	; 0x04
    14de:	fe 9e       	mul	r15, r30
    14e0:	d0 01       	movw	r26, r0
    14e2:	ff 9e       	mul	r15, r31
    14e4:	b0 0d       	add	r27, r0
    14e6:	11 24       	eor	r1, r1
    14e8:	ae 57       	subi	r26, 0x7E	; 126
    14ea:	be 4f       	sbci	r27, 0xFE	; 254
    14ec:	bc 92       	st	X, r11
					dispmask=0x80;
    14ee:	e0 e8       	ldi	r30, 0x80	; 128
    14f0:	5e 2e       	mov	r5, r30
    14f2:	2f 5f       	subi	r18, 0xFF	; 255
    14f4:	3f 4f       	sbci	r19, 0xFF	; 255
    14f6:	c5 cf       	rjmp	.-118    	; 0x1482 <st7565r_SetText+0x98>
				}
			}
			if(dispmask != 0x80) //st7565r_write_data_at(x, page, LCD_FrameBuffer[page][x]);
    14f8:	f0 e8       	ldi	r31, 0x80	; 128
    14fa:	5f 16       	cp	r5, r31
    14fc:	31 f0       	breq	.+12     	; 0x150a <st7565r_SetText+0x120>
					LCD_FrameBuffer[page][GFX_SCREEN_WIDTH]=BufferDirty;
    14fe:	f6 9c       	mul	r15, r6
    1500:	d0 01       	movw	r26, r0
    1502:	11 24       	eor	r1, r1
    1504:	ae 57       	subi	r26, 0x7E	; 126
    1506:	be 4f       	sbci	r27, 0xFE	; 254
    1508:	bc 92       	st	X, r11
			x++;
    150a:	8f 5f       	subi	r24, 0xFF	; 255
			if(x == GFX_SCREEN_WIDTH) return; //Wychodzimy za LCD
    150c:	80 38       	cpi	r24, 0x80	; 128
    150e:	09 f0       	breq	.+2      	; 0x1512 <st7565r_SetText+0x128>
    1510:	ae cf       	rjmp	.-164    	; 0x146e <st7565r_SetText+0x84>
    1512:	05 c0       	rjmp	.+10     	; 0x151e <st7565r_SetText+0x134>
    1514:	2f ef       	ldi	r18, 0xFF	; 255
    1516:	c2 1a       	sub	r12, r18
    1518:	d2 0a       	sbc	r13, r18
    151a:	e2 0a       	sbc	r14, r18
    151c:	90 cf       	rjmp	.-224    	; 0x143e <st7565r_SetText+0x54>
		}
	}
    151e:	0f 90       	pop	r0
    1520:	0f 90       	pop	r0
    1522:	0f 90       	pop	r0
    1524:	0f 90       	pop	r0
    1526:	df 91       	pop	r29
    1528:	cf 91       	pop	r28
    152a:	1f 91       	pop	r17
    152c:	0f 91       	pop	r16
    152e:	ff 90       	pop	r15
    1530:	ef 90       	pop	r14
    1532:	df 90       	pop	r13
    1534:	cf 90       	pop	r12
    1536:	bf 90       	pop	r11
    1538:	af 90       	pop	r10
    153a:	9f 90       	pop	r9
    153c:	8f 90       	pop	r8
    153e:	7f 90       	pop	r7
    1540:	6f 90       	pop	r6
    1542:	5f 90       	pop	r5
    1544:	4f 90       	pop	r4
    1546:	3f 90       	pop	r3
    1548:	08 95       	ret

0000154a <_exit>:
    154a:	f8 94       	cli

0000154c <__stop_program>:
    154c:	ff cf       	rjmp	.-2      	; 0x154c <__stop_program>
